; Function Attrs: mustprogress uwtable
define noundef nonnull align 8 dereferenceable(200) ptr @_ZN6icu_7510UnicodeSet5clearEv(ptr noundef nonnull returned align 8 dereferenceable(200) %this) unnamed_addr #1 align 2 {
entry:
  %bmpSet.i = getelementptr inbounds i8, ptr %this, i64 40
  %0 = load ptr, ptr %bmpSet.i, align 8
  %cmp.not.i = icmp eq ptr %0, null
  %stringSpan.i = getelementptr inbounds i8, ptr %this, i64 88
  %1 = load ptr, ptr %stringSpan.i, align 8
  %cmp2.i = icmp eq ptr %1, null
  %narrow.i.not = select i1 %cmp.not.i, i1 %cmp2.i, i1 false
  br i1 %narrow.i.not, label %if.end, label %return

if.end:                                           ; preds = %entry
  %list = getelementptr inbounds i8, ptr %this, i64 16
  %2 = load ptr, ptr %list, align 8
  store i32 1114112, ptr %2, align 4
  %len = getelementptr inbounds i8, ptr %this, i64 28
  store i32 1, ptr %len, align 4
  %pat.i = getelementptr inbounds i8, ptr %this, i64 64
  %3 = load ptr, ptr %pat.i, align 8
  %tobool.not.i = icmp eq ptr %3, null
  br i1 %tobool.not.i, label %_ZN6icu_7510UnicodeSet14releasePatternEv.exit, label %if.then.i

if.then.i:                                        ; preds = %if.end
  tail call void @uprv_free_75(ptr noundef nonnull %3)
  store ptr null, ptr %pat.i, align 8
  %patLen.i = getelementptr inbounds i8, ptr %this, i64 72
  store i32 0, ptr %patLen.i, align 8
  br label %_ZN6icu_7510UnicodeSet14releasePatternEv.exit

_ZN6icu_7510UnicodeSet14releasePatternEv.exit:    ; preds = %if.end, %if.then.i
  %strings = getelementptr inbounds i8, ptr %this, i64 80
  %4 = load ptr, ptr %strings, align 8
  %cmp.not = icmp eq ptr %4, null
  br i1 %cmp.not, label %if.end4, label %if.then2

if.then2:                                         ; preds = %_ZN6icu_7510UnicodeSet14releasePatternEv.exit
  tail call void @_ZN6icu_757UVector17removeAllElementsEv(ptr noundef nonnull align 8 dereferenceable(40) %4)
  br label %if.end4

if.end4:                                          ; preds = %if.then2, %_ZN6icu_7510UnicodeSet14releasePatternEv.exit
  %fFlags = getelementptr inbounds i8, ptr %this, i64 32
  store i8 0, ptr %fFlags, align 8
  br label %return

return:                                           ; preds = %entry, %if.end4
  ret ptr %this
}